target datalayout = "e-m:e-p270:32:32-p271:32:32-p272:64:64-i64:64-f80:128-n8:16:32:64-S128"
target triple = "x86_64-pc-linux-gnu"

@.str = private unnamed_addr constant [4 x i8] c"%lf\00", align 1
@.str.1 = private unnamed_addr constant [3 x i8] c"%s\00", align 1
@.str.2 = private unnamed_addr constant [6 x i8] c"error\00", align 1
@.str.3 = private unnamed_addr constant [4 x i8] c"yes\00", align 1
@.str.4 = private unnamed_addr constant [3 x i8] c"no\00", align 1

; Function Attrs: noinline nounwind uwtable
define dso_local i32 @main() #0 {
  %1 = alloca i32, align 4
  %2 = alloca double, align 8
  %3 = alloca double, align 8
  %4 = alloca i32, align 4
  %5 = alloca i32, align 4
  %6 = alloca i32, align 4
  %7 = alloca i32, align 4
  %8 = alloca i32, align 4
  %9 = alloca i32, align 4
  %10 = alloca i32, align 4
  %11 = alloca i32, align 4
  %12 = alloca [2 x [1000 x i8]], align 16
  store i32 0, i32* %1, align 4
  store i32 0, i32* %7, align 4
  store i32 0, i32* %9, align 4
  store i32 0, i32* %10, align 4
  store i32 0, i32* %11, align 4
  %13 = call i32 (i8*, ...) @__isoc99_scanf(i8* getelementptr inbounds ([4 x i8], [4 x i8]* @.str, i64 0, i64 0), double* %2)
  store i32 0, i32* %5, align 4
  br label %14

14:                                               ; preds = %23, %0
  %15 = load i32, i32* %5, align 4
  %16 = icmp slt i32 %15, 2
  br i1 %16, label %17, label %26

17:                                               ; preds = %14
  %18 = load i32, i32* %5, align 4
  %19 = sext i32 %18 to i64
  %20 = getelementptr inbounds [2 x [1000 x i8]], [2 x [1000 x i8]]* %12, i64 0, i64 %19
  %21 = getelementptr inbounds [1000 x i8], [1000 x i8]* %20, i64 0, i64 0
  %22 = call i32 (i8*, ...) @__isoc99_scanf(i8* getelementptr inbounds ([3 x i8], [3 x i8]* @.str.1, i64 0, i64 0), i8* %21)
  br label %23

23:                                               ; preds = %17
  %24 = load i32, i32* %5, align 4
  %25 = add nsw i32 %24, 1
  store i32 %25, i32* %5, align 4
  br label %14

26:                                               ; preds = %14
  %27 = getelementptr inbounds [2 x [1000 x i8]], [2 x [1000 x i8]]* %12, i64 0, i64 1
  %28 = getelementptr inbounds [1000 x i8], [1000 x i8]* %27, i64 0, i64 0
  %29 = call i64 @strlen(i8* %28) #3
  %30 = trunc i64 %29 to i32
  store i32 %30, i32* %8, align 4
  %31 = getelementptr inbounds [2 x [1000 x i8]], [2 x [1000 x i8]]* %12, i64 0, i64 0
  %32 = getelementptr inbounds [1000 x i8], [1000 x i8]* %31, i64 0, i64 0
  %33 = call i64 @strlen(i8* %32) #3
  %34 = trunc i64 %33 to i32
  store i32 %34, i32* %4, align 4
  %35 = load i32, i32* %4, align 4
  %36 = load i32, i32* %8, align 4
  %37 = icmp ne i32 %35, %36
  br i1 %37, label %38, label %40

38:                                               ; preds = %26
  %39 = call i32 (i8*, ...) @printf(i8* getelementptr inbounds ([6 x i8], [6 x i8]* @.str.2, i64 0, i64 0))
  store i32 0, i32* %1, align 4
  br label %178

40:                                               ; preds = %26
  store i32 0, i32* %6, align 4
  br label %41

41:                                               ; preds = %81, %40
  %42 = load i32, i32* %6, align 4
  %43 = load i32, i32* %4, align 4
  %44 = icmp slt i32 %42, %43
  br i1 %44, label %45, label %84

45:                                               ; preds = %41
  %46 = getelementptr inbounds [2 x [1000 x i8]], [2 x [1000 x i8]]* %12, i64 0, i64 0
  %47 = load i32, i32* %6, align 4
  %48 = sext i32 %47 to i64
  %49 = getelementptr inbounds [1000 x i8], [1000 x i8]* %46, i64 0, i64 %48
  %50 = load i8, i8* %49, align 1
  %51 = sext i8 %50 to i32
  %52 = icmp ne i32 %51, 65
  br i1 %52, label %53, label %80

53:                                               ; preds = %45
  %54 = getelementptr inbounds [2 x [1000 x i8]], [2 x [1000 x i8]]* %12, i64 0, i64 0
  %55 = load i32, i32* %6, align 4
  %56 = sext i32 %55 to i64
  %57 = getelementptr inbounds [1000 x i8], [1000 x i8]* %54, i64 0, i64 %56
  %58 = load i8, i8* %57, align 1
  %59 = sext i8 %58 to i32
  %60 = icmp ne i32 %59, 84
  br i1 %60, label %61, label %80

61:                                               ; preds = %53
  %62 = getelementptr inbounds [2 x [1000 x i8]], [2 x [1000 x i8]]* %12, i64 0, i64 0
  %63 = load i32, i32* %6, align 4
  %64 = sext i32 %63 to i64
  %65 = getelementptr inbounds [1000 x i8], [1000 x i8]* %62, i64 0, i64 %64
  %66 = load i8, i8* %65, align 1
  %67 = sext i8 %66 to i32
  %68 = icmp ne i32 %67, 67
  br i1 %68, label %69, label %80

69:                                               ; preds = %61
  %70 = getelementptr inbounds [2 x [1000 x i8]], [2 x [1000 x i8]]* %12, i64 0, i64 0
  %71 = load i32, i32* %6, align 4
  %72 = sext i32 %71 to i64
  %73 = getelementptr inbounds [1000 x i8], [1000 x i8]* %70, i64 0, i64 %72
  %74 = load i8, i8* %73, align 1
  %75 = sext i8 %74 to i32
  %76 = icmp ne i32 %75, 71
  br i1 %76, label %77, label %80

77:                                               ; preds = %69
  %78 = load i32, i32* %10, align 4
  %79 = add nsw i32 %78, 1
  store i32 %79, i32* %10, align 4
  br label %80

80:                                               ; preds = %77, %69, %61, %53, %45
  br label %81

81:                                               ; preds = %80
  %82 = load i32, i32* %6, align 4
  %83 = add nsw i32 %82, 1
  store i32 %83, i32* %6, align 4
  br label %41

84:                                               ; preds = %41
  store i32 0, i32* %6, align 4
  br label %85

85:                                               ; preds = %125, %84
  %86 = load i32, i32* %6, align 4
  %87 = load i32, i32* %8, align 4
  %88 = icmp slt i32 %86, %87
  br i1 %88, label %89, label %128

89:                                               ; preds = %85
  %90 = getelementptr inbounds [2 x [1000 x i8]], [2 x [1000 x i8]]* %12, i64 0, i64 1
  %91 = load i32, i32* %6, align 4
  %92 = sext i32 %91 to i64
  %93 = getelementptr inbounds [1000 x i8], [1000 x i8]* %90, i64 0, i64 %92
  %94 = load i8, i8* %93, align 1
  %95 = sext i8 %94 to i32
  %96 = icmp ne i32 %95, 65
  br i1 %96, label %97, label %124

97:                                               ; preds = %89
  %98 = getelementptr inbounds [2 x [1000 x i8]], [2 x [1000 x i8]]* %12, i64 0, i64 1
  %99 = load i32, i32* %6, align 4
  %100 = sext i32 %99 to i64
  %101 = getelementptr inbounds [1000 x i8], [1000 x i8]* %98, i64 0, i64 %100
  %102 = load i8, i8* %101, align 1
  %103 = sext i8 %102 to i32
  %104 = icmp ne i32 %103, 84
  br i1 %104, label %105, label %124

105:                                              ; preds = %97
  %106 = getelementptr inbounds [2 x [1000 x i8]], [2 x [1000 x i8]]* %12, i64 0, i64 1
  %107 = load i32, i32* %6, align 4
  %108 = sext i32 %107 to i64
  %109 = getelementptr inbounds [1000 x i8], [1000 x i8]* %106, i64 0, i64 %108
  %110 = load i8, i8* %109, align 1
  %111 = sext i8 %110 to i32
  %112 = icmp ne i32 %111, 67
  br i1 %112, label %113, label %124

113:                                              ; preds = %105
  %114 = getelementptr inbounds [2 x [1000 x i8]], [2 x [1000 x i8]]* %12, i64 0, i64 1
  %115 = load i32, i32* %6, align 4
  %116 = sext i32 %115 to i64
  %117 = getelementptr inbounds [1000 x i8], [1000 x i8]* %114, i64 0, i64 %116
  %118 = load i8, i8* %117, align 1
  %119 = sext i8 %118 to i32
  %120 = icmp ne i32 %119, 71
  br i1 %120, label %121, label %124

121:                                              ; preds = %113
  %122 = load i32, i32* %10, align 4
  %123 = add nsw i32 %122, 1
  store i32 %123, i32* %10, align 4
  br label %124

124:                                              ; preds = %121, %113, %105, %97, %89
  br label %125

125:                                              ; preds = %124
  %126 = load i32, i32* %6, align 4
  %127 = add nsw i32 %126, 1
  store i32 %127, i32* %6, align 4
  br label %85

128:                                              ; preds = %85
  %129 = load i32, i32* %10, align 4
  %130 = icmp ne i32 %129, 0
  br i1 %130, label %131, label %133

131:                                              ; preds = %128
  %132 = call i32 (i8*, ...) @printf(i8* getelementptr inbounds ([6 x i8], [6 x i8]* @.str.2, i64 0, i64 0))
  store i32 0, i32* %1, align 4
  br label %178

133:                                              ; preds = %128
  store i32 0, i32* %6, align 4
  br label %134

134:                                              ; preds = %156, %133
  %135 = load i32, i32* %6, align 4
  %136 = load i32, i32* %4, align 4
  %137 = icmp slt i32 %135, %136
  br i1 %137, label %138, label %159

138:                                              ; preds = %134
  %139 = getelementptr inbounds [2 x [1000 x i8]], [2 x [1000 x i8]]* %12, i64 0, i64 0
  %140 = load i32, i32* %6, align 4
  %141 = sext i32 %140 to i64
  %142 = getelementptr inbounds [1000 x i8], [1000 x i8]* %139, i64 0, i64 %141
  %143 = load i8, i8* %142, align 1
  %144 = sext i8 %143 to i32
  %145 = getelementptr inbounds [2 x [1000 x i8]], [2 x [1000 x i8]]* %12, i64 0, i64 1
  %146 = load i32, i32* %6, align 4
  %147 = sext i32 %146 to i64
  %148 = getelementptr inbounds [1000 x i8], [1000 x i8]* %145, i64 0, i64 %147
  %149 = load i8, i8* %148, align 1
  %150 = sext i8 %149 to i32
  %151 = icmp eq i32 %144, %150
  br i1 %151, label %152, label %155

152:                                              ; preds = %138
  %153 = load i32, i32* %7, align 4
  %154 = add nsw i32 %153, 1
  store i32 %154, i32* %7, align 4
  br label %155

155:                                              ; preds = %152, %138
  br label %156

156:                                              ; preds = %155
  %157 = load i32, i32* %6, align 4
  %158 = add nsw i32 %157, 1
  store i32 %158, i32* %6, align 4
  br label %134

159:                                              ; preds = %134
  %160 = load i32, i32* %7, align 4
  %161 = sitofp i32 %160 to double
  %162 = fmul double 1.000000e+00, %161
  %163 = load i32, i32* %4, align 4
  %164 = sitofp i32 %163 to double
  %165 = fdiv double %162, %164
  store double %165, double* %3, align 8
  %166 = load double, double* %3, align 8
  %167 = load double, double* %2, align 8
  %168 = fcmp oge double %166, %167
  br i1 %168, label %169, label %171

169:                                              ; preds = %159
  %170 = call i32 (i8*, ...) @printf(i8* getelementptr inbounds ([4 x i8], [4 x i8]* @.str.3, i64 0, i64 0))
  br label %171

171:                                              ; preds = %169, %159
  %172 = load double, double* %3, align 8
  %173 = load double, double* %2, align 8
  %174 = fcmp olt double %172, %173
  br i1 %174, label %175, label %177

175:                                              ; preds = %171
  %176 = call i32 (i8*, ...) @printf(i8* getelementptr inbounds ([3 x i8], [3 x i8]* @.str.4, i64 0, i64 0))
  br label %177

177:                                              ; preds = %175, %171
  store i32 0, i32* %1, align 4
  br label %178

178:                                              ; preds = %177, %131, %38
  %179 = load i32, i32* %1, align 4
  ret i32 %179
}